; Function Attrs: mustprogress nofree nounwind uwtable
define dso_local void @_Z4InfoPKcP13__va_list_tag(ptr noundef readonly captures(none) %0, ptr noundef %1) local_unnamed_addr #6 {
  %3 = load ptr, ptr @stdout, align 8, !tbaa !4
  %4 = tail call i64 @fwrite(ptr nonnull @.str.4, i64 7, i64 1, ptr %3)
  %5 = load ptr, ptr @stdout, align 8, !tbaa !4
  %6 = tail call i32 @vfprintf(ptr noundef %5, ptr noundef %0, ptr noundef %1) #32
  %7 = load ptr, ptr @stdout, align 8, !tbaa !4
  %fputc = tail call i32 @fputc(i32 10, ptr %7)
  ret void
}